target datalayout = "e-m:e-p270:32:32-p271:32:32-p272:64:64-i64:64-i128:128-f80:128-n8:16:32:64-S128"
target triple = "x86_64-pc-linux-gnu"

@.str.3 = private unnamed_addr constant [3 x i8] c" \09\00", align 1

; Function Attrs: mustprogress uwtable
define dso_local void @_ZN11StringUtils4chopERNSt7__cxx1112basic_stringIcSt11char_traitsIcESaIcEEE(ptr noundef nonnull align 8 dereferenceable(32) %0) #5 align 2 {
  %2 = alloca ptr, align 8
  %3 = alloca i64, align 8
  store ptr %0, ptr %2, align 8
  %4 = load ptr, ptr %2, align 8
  %5 = call noundef i64 @_ZNKSt7__cxx1112basic_stringIcSt11char_traitsIcESaIcEE17find_first_not_ofEPKcm(ptr noundef nonnull align 8 dereferenceable(32) %4, ptr noundef @.str.3, i64 noundef 0) #3
  store i64 %5, ptr %3, align 8
  %6 = load ptr, ptr %2, align 8
  %7 = load i64, ptr %3, align 8
  %8 = call noundef nonnull align 8 dereferenceable(32) ptr @_ZNSt7__cxx1112basic_stringIcSt11char_traitsIcESaIcEE5eraseEmm(ptr noundef nonnull align 8 dereferenceable(32) %6, i64 noundef 0, i64 noundef %7)
  %9 = load ptr, ptr %2, align 8
  %10 = call noundef i64 @_ZNKSt7__cxx1112basic_stringIcSt11char_traitsIcESaIcEE16find_last_not_ofEPKcm(ptr noundef nonnull align 8 dereferenceable(32) %9, ptr noundef @.str.3, i64 noundef -1) #3
  store i64 %10, ptr %3, align 8
  %11 = load i64, ptr %3, align 8
  %12 = icmp ne i64 -1, %11
  br i1 %12, label %13, label %18

13:                                               ; preds = %1
  %14 = load ptr, ptr %2, align 8
  %15 = load i64, ptr %3, align 8
  %16 = add i64 %15, 1
  %17 = call noundef nonnull align 8 dereferenceable(32) ptr @_ZNSt7__cxx1112basic_stringIcSt11char_traitsIcESaIcEE5eraseEmm(ptr noundef nonnull align 8 dereferenceable(32) %14, i64 noundef %16, i64 noundef -1)
  br label %18

18:                                               ; preds = %13, %1
  ret void
}